; Function Attrs: mustprogress uwtable
define void @_ZN2cv8multiplyERKNS_11_InputArrayES2_RKNS_12_OutputArrayEdi(ptr noundef nonnull align 8 dereferenceable(24) %0, ptr noundef nonnull align 8 dereferenceable(24) %1, ptr noundef nonnull align 8 dereferenceable(24) %2, double noundef %3, i32 noundef %4) local_unnamed_addr #0 personality ptr @__gxx_personality_v0 {
  %6 = alloca double, align 8
  %7 = alloca %"class.cv::utils::trace::details::Region", align 8
  store double %3, ptr %6, align 8
  call void @_ZN2cv5utils5trace7details6RegionC1ERKNS3_21LocationStaticStorageE(ptr noundef nonnull align 8 dereferenceable(12) %7, ptr noundef nonnull align 8 dereferenceable(32) @_ZZN2cv8multiplyERKNS_11_InputArrayES2_RKNS_12_OutputArrayEdiE26__cv_trace_location_fn1121)
  %8 = invoke noundef i32 @_ZNK2cv11_InputArray5depthEi(ptr noundef nonnull align 8 dereferenceable(24) %0, i32 noundef -1)
          to label %9 unwind label %32

9:                                                ; preds = %5
  %10 = invoke noundef i32 @_ZNK2cv11_InputArray5depthEi(ptr noundef nonnull align 8 dereferenceable(24) %1, i32 noundef -1)
          to label %11 unwind label %32

11:                                               ; preds = %9
  %12 = icmp slt i32 %4, 0
  br i1 %12, label %13, label %15

13:                                               ; preds = %11
  %14 = invoke noundef i32 @_ZNK2cv11_InputArray5depthEi(ptr noundef nonnull align 8 dereferenceable(24) %2, i32 noundef -1)
          to label %15 unwind label %32

15:                                               ; preds = %11, %13
  %16 = phi i32 [ %14, %13 ], [ %4, %11 ]
  %17 = or i32 %10, %8
  %or.cond.i = icmp eq i32 %17, 0
  %18 = icmp eq i32 %16, 2
  %or.cond3.i = and i1 %or.cond.i, %18
  br i1 %or.cond3.i, label %_ZN2cvL13getMulExtFuncEiii.exit, label %19

19:                                               ; preds = %15
  %20 = icmp eq i32 %8, 1
  %21 = icmp eq i32 %10, 1
  %or.cond5.i = and i1 %20, %21
  %22 = icmp eq i32 %16, 3
  %or.cond7.i = and i1 %or.cond5.i, %22
  %_ZN2cvL15mul8s16sWrapperEPKhmS1_mPhmiiPv..i = select i1 %or.cond7.i, ptr @_ZN2cvL15mul8s16sWrapperEPKhmS1_mPhmiiPv, ptr null
  br label %_ZN2cvL13getMulExtFuncEiii.exit

_ZN2cvL13getMulExtFuncEiii.exit:                  ; preds = %15, %19
  %.0.i = phi ptr [ @_ZN2cvL15mul8u16uWrapperEPKhmS1_mPhmiiPv, %15 ], [ %_ZN2cvL15mul8s16sWrapperEPKhmS1_mPhmiiPv..i, %19 ]
  %23 = invoke noundef nonnull align 8 dereferenceable(24) ptr @_ZN2cv7noArrayEv()
          to label %24 unwind label %32

24:                                               ; preds = %_ZN2cvL13getMulExtFuncEiii.exit
  invoke fastcc void @_ZN2cvL9arithm_opERKNS_11_InputArrayES2_RKNS_12_OutputArrayES2_iPPFvPKhmS7_mPhmiiPvEbS9_iPFiS7_mS7_mS8_miiS9_E(ptr noundef nonnull align 8 dereferenceable(24) %0, ptr noundef nonnull align 8 dereferenceable(24) %1, ptr noundef nonnull align 8 dereferenceable(24) %2, ptr noundef nonnull align 8 dereferenceable(24) %23, i32 noundef %4, ptr noundef nonnull @_ZZN2cvL9getMulTabEvE6mulTab, i1 noundef zeroext true, ptr noundef nonnull %6, ptr noundef %.0.i)
          to label %25 unwind label %32

25:                                               ; preds = %24
  %26 = getelementptr inbounds i8, ptr %7, i64 8
  %27 = load i32, ptr %26, align 8
  %.not.i = icmp eq i32 %27, 0
  br i1 %.not.i, label %_ZN2cv5utils5trace7details6RegionD2Ev.exit, label %28

28:                                               ; preds = %25
  invoke void @_ZN2cv5utils5trace7details6Region7destroyEv(ptr noundef nonnull align 8 dereferenceable(12) %7)
          to label %_ZN2cv5utils5trace7details6RegionD2Ev.exit unwind label %29

29:                                               ; preds = %28
  %30 = landingpad { ptr, i32 }
          catch ptr null
  %31 = extractvalue { ptr, i32 } %30, 0
  call void @__clang_call_terminate(ptr %31) #17
  unreachable

_ZN2cv5utils5trace7details6RegionD2Ev.exit:       ; preds = %25, %28
  ret void

32:                                               ; preds = %24, %_ZN2cvL13getMulExtFuncEiii.exit, %13, %9, %5
  %33 = landingpad { ptr, i32 }
          cleanup
  call void @_ZN2cv5utils5trace7details6RegionD2Ev(ptr noundef nonnull align 8 dereferenceable(12) %7) #18
  resume { ptr, i32 } %33
}